; Function Attrs: mustprogress nofree norecurse nosync nounwind willreturn memory(argmem: readwrite) uwtable
define hidden void @_ZN12mpbq_managerC2ER11mpz_managerILb0EE(ptr noundef nonnull align 8 captures(none) dereferenceable(208) initializes((0, 12), (16, 28), (32, 44), (48, 60), (64, 68), (72, 84), (88, 100), (104, 116), (120, 132), (136, 140), (144, 156), (160, 164), (168, 180), (184, 196), (200, 208)) %0, ptr noundef nonnull align 8 dereferenceable(600) %1) unnamed_addr #7 align 2 {
  store ptr %1, ptr %0, align 8, !tbaa !24
  %3 = getelementptr inbounds nuw i8, ptr %0, i64 8
  store i32 0, ptr %3, align 8, !tbaa !3
  %4 = getelementptr inbounds nuw i8, ptr %0, i64 12
  %5 = load i8, ptr %4, align 4
  %6 = and i8 %5, -4
  store i8 %6, ptr %4, align 4
  %7 = getelementptr inbounds nuw i8, ptr %0, i64 16
  store ptr null, ptr %7, align 8, !tbaa !10
  %8 = getelementptr inbounds nuw i8, ptr %0, i64 24
  store i32 0, ptr %8, align 8, !tbaa !3
  %9 = getelementptr inbounds nuw i8, ptr %0, i64 28
  %10 = load i8, ptr %9, align 4
  %11 = and i8 %10, -4
  store i8 %11, ptr %9, align 4
  %12 = getelementptr inbounds nuw i8, ptr %0, i64 32
  store ptr null, ptr %12, align 8, !tbaa !10
  %13 = getelementptr inbounds nuw i8, ptr %0, i64 40
  store i32 0, ptr %13, align 8, !tbaa !3
  %14 = getelementptr inbounds nuw i8, ptr %0, i64 44
  %15 = load i8, ptr %14, align 4
  %16 = and i8 %15, -4
  store i8 %16, ptr %14, align 4
  %17 = getelementptr inbounds nuw i8, ptr %0, i64 48
  store ptr null, ptr %17, align 8, !tbaa !10
  %18 = getelementptr inbounds nuw i8, ptr %0, i64 56
  store i32 0, ptr %18, align 8, !tbaa !13
  %19 = getelementptr inbounds nuw i8, ptr %0, i64 64
  store i32 0, ptr %19, align 8, !tbaa !3
  %20 = getelementptr inbounds nuw i8, ptr %0, i64 68
  %21 = load i8, ptr %20, align 4
  %22 = and i8 %21, -4
  store i8 %22, ptr %20, align 4
  %23 = getelementptr inbounds nuw i8, ptr %0, i64 72
  store ptr null, ptr %23, align 8, !tbaa !10
  %24 = getelementptr inbounds nuw i8, ptr %0, i64 80
  store i32 0, ptr %24, align 8, !tbaa !3
  %25 = getelementptr inbounds nuw i8, ptr %0, i64 84
  %26 = load i8, ptr %25, align 4
  %27 = and i8 %26, -4
  store i8 %27, ptr %25, align 4
  %28 = getelementptr inbounds nuw i8, ptr %0, i64 88
  store ptr null, ptr %28, align 8, !tbaa !10
  %29 = getelementptr inbounds nuw i8, ptr %0, i64 96
  store i32 0, ptr %29, align 8, !tbaa !3
  %30 = getelementptr inbounds nuw i8, ptr %0, i64 100
  %31 = load i8, ptr %30, align 4
  %32 = and i8 %31, -4
  store i8 %32, ptr %30, align 4
  %33 = getelementptr inbounds nuw i8, ptr %0, i64 104
  store ptr null, ptr %33, align 8, !tbaa !10
  %34 = getelementptr inbounds nuw i8, ptr %0, i64 112
  store i32 0, ptr %34, align 8, !tbaa !3
  %35 = getelementptr inbounds nuw i8, ptr %0, i64 116
  %36 = load i8, ptr %35, align 4
  %37 = and i8 %36, -4
  store i8 %37, ptr %35, align 4
  %38 = getelementptr inbounds nuw i8, ptr %0, i64 120
  store ptr null, ptr %38, align 8, !tbaa !10
  %39 = getelementptr inbounds nuw i8, ptr %0, i64 128
  store i32 0, ptr %39, align 8, !tbaa !13
  %40 = getelementptr inbounds nuw i8, ptr %0, i64 136
  store i32 0, ptr %40, align 8, !tbaa !3
  %41 = getelementptr inbounds nuw i8, ptr %0, i64 140
  %42 = load i8, ptr %41, align 4
  %43 = and i8 %42, -4
  store i8 %43, ptr %41, align 4
  %44 = getelementptr inbounds nuw i8, ptr %0, i64 144
  store ptr null, ptr %44, align 8, !tbaa !10
  %45 = getelementptr inbounds nuw i8, ptr %0, i64 152
  store i32 0, ptr %45, align 8, !tbaa !13
  %46 = getelementptr inbounds nuw i8, ptr %0, i64 160
  store i32 0, ptr %46, align 8, !tbaa !3
  %47 = getelementptr inbounds nuw i8, ptr %0, i64 164
  %48 = load i8, ptr %47, align 4
  %49 = and i8 %48, -4
  store i8 %49, ptr %47, align 4
  %50 = getelementptr inbounds nuw i8, ptr %0, i64 168
  store ptr null, ptr %50, align 8, !tbaa !10
  %51 = getelementptr inbounds nuw i8, ptr %0, i64 176
  store i32 0, ptr %51, align 8, !tbaa !3
  %52 = getelementptr inbounds nuw i8, ptr %0, i64 180
  %53 = load i8, ptr %52, align 4
  %54 = and i8 %53, -4
  store i8 %54, ptr %52, align 4
  %55 = getelementptr inbounds nuw i8, ptr %0, i64 184
  store ptr null, ptr %55, align 8, !tbaa !10
  %56 = getelementptr inbounds nuw i8, ptr %0, i64 192
  store i32 0, ptr %56, align 8, !tbaa !3
  %57 = getelementptr inbounds nuw i8, ptr %0, i64 196
  %58 = load i8, ptr %57, align 4
  %59 = and i8 %58, -4
  store i8 %59, ptr %57, align 4
  %60 = getelementptr inbounds nuw i8, ptr %0, i64 200
  store ptr null, ptr %60, align 8, !tbaa !10
  ret void
}